target datalayout = "e-m:e-p270:32:32-p271:32:32-p272:64:64-i64:64-i128:128-f80:128-n8:16:32:64-S128"
target triple = "x86_64-pc-linux-gnu"

%struct.pollfd = type { i32, i16, i16 }

; Function Attrs: nounwind uwtable
define dso_local void @__archive_check_child(i32 noundef %0, i32 noundef %1) #0 {
  %3 = alloca i32, align 4
  %4 = alloca i32, align 4
  %5 = alloca [2 x %struct.pollfd], align 16
  %6 = alloca i32, align 4
  store i32 %0, ptr %3, align 4, !tbaa !11
  store i32 %1, ptr %4, align 4, !tbaa !11
  call void @llvm.lifetime.start.p0(i64 16, ptr %5) #5
  call void @llvm.lifetime.start.p0(i64 4, ptr %6) #5
  store i32 0, ptr %6, align 4, !tbaa !11
  %7 = load i32, ptr %3, align 4, !tbaa !11
  %8 = icmp ne i32 %7, -1
  br i1 %8, label %9, label %21

9:                                                ; preds = %2
  %10 = load i32, ptr %3, align 4, !tbaa !11
  %11 = load i32, ptr %6, align 4, !tbaa !11
  %12 = sext i32 %11 to i64
  %13 = getelementptr inbounds [2 x %struct.pollfd], ptr %5, i64 0, i64 %12
  %14 = getelementptr inbounds nuw %struct.pollfd, ptr %13, i32 0, i32 0
  store i32 %10, ptr %14, align 8, !tbaa !19
  %15 = load i32, ptr %6, align 4, !tbaa !11
  %16 = sext i32 %15 to i64
  %17 = getelementptr inbounds [2 x %struct.pollfd], ptr %5, i64 0, i64 %16
  %18 = getelementptr inbounds nuw %struct.pollfd, ptr %17, i32 0, i32 1
  store i16 4, ptr %18, align 4, !tbaa !22
  %19 = load i32, ptr %6, align 4, !tbaa !11
  %20 = add nsw i32 %19, 1
  store i32 %20, ptr %6, align 4, !tbaa !11
  br label %21

21:                                               ; preds = %9, %2
  %22 = load i32, ptr %4, align 4, !tbaa !11
  %23 = icmp ne i32 %22, -1
  br i1 %23, label %24, label %36

24:                                               ; preds = %21
  %25 = load i32, ptr %4, align 4, !tbaa !11
  %26 = load i32, ptr %6, align 4, !tbaa !11
  %27 = sext i32 %26 to i64
  %28 = getelementptr inbounds [2 x %struct.pollfd], ptr %5, i64 0, i64 %27
  %29 = getelementptr inbounds nuw %struct.pollfd, ptr %28, i32 0, i32 0
  store i32 %25, ptr %29, align 8, !tbaa !19
  %30 = load i32, ptr %6, align 4, !tbaa !11
  %31 = sext i32 %30 to i64
  %32 = getelementptr inbounds [2 x %struct.pollfd], ptr %5, i64 0, i64 %31
  %33 = getelementptr inbounds nuw %struct.pollfd, ptr %32, i32 0, i32 1
  store i16 1, ptr %33, align 4, !tbaa !22
  %34 = load i32, ptr %6, align 4, !tbaa !11
  %35 = add nsw i32 %34, 1
  store i32 %35, ptr %6, align 4, !tbaa !11
  br label %36

36:                                               ; preds = %24, %21
  %37 = getelementptr inbounds [2 x %struct.pollfd], ptr %5, i64 0, i64 0
  %38 = load i32, ptr %6, align 4, !tbaa !11
  %39 = sext i32 %38 to i64
  %40 = call i32 @poll(ptr noundef %37, i64 noundef %39, i32 noundef -1)
  call void @llvm.lifetime.end.p0(i64 4, ptr %6) #5
  call void @llvm.lifetime.end.p0(i64 16, ptr %5) #5
  ret void
}