; Function Attrs: nounwind uwtable
define dso_local void @__archive_check_child(i32 noundef %0, i32 noundef %1) local_unnamed_addr #0 {
  %3 = alloca [2 x %struct.pollfd], align 16
  call void @llvm.lifetime.start.p0(i64 16, ptr nonnull %3) #5
  %.not = icmp eq i32 %0, -1
  br i1 %.not, label %6, label %4

4:                                                ; preds = %2
  store i32 %0, ptr %3, align 16, !tbaa !14
  %5 = getelementptr inbounds nuw i8, ptr %3, i64 4
  store i16 4, ptr %5, align 4, !tbaa !17
  br label %6

6:                                                ; preds = %4, %2
  %.0 = phi i32 [ 1, %4 ], [ 0, %2 ]
  %.not13 = icmp eq i32 %1, -1
  br i1 %.not13, label %12, label %7

7:                                                ; preds = %6
  %8 = zext nneg i32 %.0 to i64
  %9 = getelementptr inbounds nuw [2 x %struct.pollfd], ptr %3, i64 0, i64 %8
  store i32 %1, ptr %9, align 8, !tbaa !14
  %10 = getelementptr inbounds nuw i8, ptr %9, i64 4
  store i16 1, ptr %10, align 4, !tbaa !17
  %11 = add nuw nsw i32 %.0, 1
  br label %12

12:                                               ; preds = %7, %6
  %.1 = phi i32 [ %11, %7 ], [ %.0, %6 ]
  %13 = zext nneg i32 %.1 to i64
  %14 = call i32 @poll(ptr noundef nonnull %3, i64 noundef %13, i32 noundef -1) #5
  call void @llvm.lifetime.end.p0(i64 16, ptr nonnull %3) #5
  ret void
}